; Function Attrs: mustprogress nofree norecurse nosync nounwind willreturn memory(read, inaccessiblemem: none) uwtable
define hidden noundef zeroext i1 @_ZNK19smt2_pp_environment13is_sort_paramEP9func_decl(ptr nocapture noundef nonnull readnone align 8 dereferenceable(56) %this, ptr nocapture noundef readonly %f) local_unnamed_addr #5 align 2 {
entry:
  %m_info.i = getelementptr inbounds i8, ptr %f, i64 24
  %0 = load ptr, ptr %m_info.i, align 8
  %cmp.i = icmp eq ptr %0, null
  br i1 %cmp.i, label %land.end, label %_ZNK4decl13get_family_idEv.exit

_ZNK4decl13get_family_idEv.exit:                  ; preds = %entry
  %1 = load i32, ptr %0, align 8
  %cmp.not = icmp eq i32 %1, -1
  br i1 %cmp.not, label %land.end, label %cond.false.i8

cond.false.i8:                                    ; preds = %_ZNK4decl13get_family_idEv.exit
  %m_parameters.i.i = getelementptr inbounds i8, ptr %0, i64 8
  %2 = load ptr, ptr %m_parameters.i.i, align 8
  %cmp.i.i.i = icmp eq ptr %2, null
  br i1 %cmp.i.i.i, label %land.end, label %_ZNK4decl18get_num_parametersEv.exit

_ZNK4decl18get_num_parametersEv.exit:             ; preds = %cond.false.i8
  %arrayidx.i.i.i = getelementptr inbounds i8, ptr %2, i64 -4
  %3 = load i32, ptr %arrayidx.i.i.i, align 4
  %cmp3 = icmp eq i32 %3, 1
  br i1 %cmp3, label %land.lhs.true4, label %land.end

land.lhs.true4:                                   ; preds = %_ZNK4decl18get_num_parametersEv.exit
  %_M_index.i.i.i = getelementptr inbounds i8, ptr %2, i64 8
  %4 = load i8, ptr %_M_index.i.i.i, align 8
  %cmp.i12 = icmp eq i8 %4, 1
  br i1 %cmp.i12, label %_ZNK9parameter7get_astEv.exit, label %land.end

_ZNK9parameter7get_astEv.exit:                    ; preds = %land.lhs.true4
  %5 = load ptr, ptr %2, align 8
  %m_kind.i.i = getelementptr inbounds i8, ptr %5, i64 4
  %bf.load.i.i = load i32, ptr %m_kind.i.i, align 4
  %bf.clear.i.i = and i32 %bf.load.i.i, 65535
  %cmp.i15 = icmp eq i32 %bf.clear.i.i, 3
  br i1 %cmp.i15, label %_ZNK9parameter7get_astEv.exit23, label %land.end

_ZNK9parameter7get_astEv.exit23:                  ; preds = %_ZNK9parameter7get_astEv.exit
  %m_range.i = getelementptr inbounds i8, ptr %f, i64 40
  %6 = load ptr, ptr %m_range.i, align 8
  %cmp15 = icmp eq ptr %6, %5
  br label %land.end

land.end:                                         ; preds = %cond.false.i8, %entry, %_ZNK9parameter7get_astEv.exit23, %_ZNK9parameter7get_astEv.exit, %land.lhs.true4, %_ZNK4decl18get_num_parametersEv.exit, %_ZNK4decl13get_family_idEv.exit
  %7 = phi i1 [ false, %_ZNK9parameter7get_astEv.exit ], [ false, %land.lhs.true4 ], [ false, %_ZNK4decl18get_num_parametersEv.exit ], [ false, %_ZNK4decl13get_family_idEv.exit ], [ %cmp15, %_ZNK9parameter7get_astEv.exit23 ], [ false, %entry ], [ false, %cond.false.i8 ]
  ret i1 %7
}